; Function Attrs: mustprogress uwtable
define noundef zeroext i1 @_ZN7Archive10GetCommentEP5ArrayIwE(ptr noundef nonnull align 8 dereferenceable(57108) %0, ptr nocapture noundef %1) local_unnamed_addr #0 align 2 {
  %3 = getelementptr inbounds i8, ptr %0, i64 48846
  %4 = load i8, ptr %3, align 2
  %5 = trunc i8 %4 to i1
  br i1 %5, label %6, label %15

6:                                                ; preds = %2
  %7 = load ptr, ptr %0, align 8
  %8 = getelementptr inbounds i8, ptr %7, i64 48
  %9 = load ptr, ptr %8, align 8
  %10 = tail call noundef i64 %9(ptr noundef nonnull align 8 dereferenceable(57108) %0)
  %11 = tail call noundef zeroext i1 @_ZN7Archive12DoGetCommentEP5ArrayIwE(ptr noundef nonnull align 8 dereferenceable(57108) %0, ptr noundef %1)
  %12 = load ptr, ptr %0, align 8
  %13 = getelementptr inbounds i8, ptr %12, i64 40
  %14 = load ptr, ptr %13, align 8
  tail call void %14(ptr noundef nonnull align 8 dereferenceable(57108) %0, i64 noundef %10, i32 noundef 0)
  br label %15

15:                                               ; preds = %2, %6
  %.0 = phi i1 [ %11, %6 ], [ false, %2 ]
  ret i1 %.0
}